target datalayout = "e-m:e-p270:32:32-p271:32:32-p272:64:64-i64:64-i128:128-f80:128-n8:16:32:64-S128"
target triple = "x86_64-pc-linux-gnu"

%struct.anon.6 = type { i8 }
%struct.anon.7 = type { i8 }
%struct.anon.8 = type { i8 }
%struct.anon.40 = type { i8 }
%"struct.hb::shared_ptr" = type { ptr }
%struct.hb_subset_input_t = type { %struct.hb_object_header_t, %union.anon, i32, i8, i8, %struct.hb_hashmap_t, %struct.hb_map_t }
%struct.hb_object_header_t = type { %struct.hb_reference_count_t, %struct.hb_atomic_int_t, %struct.hb_atomic_ptr_t }
%struct.hb_reference_count_t = type { %struct.hb_atomic_int_t }
%struct.hb_atomic_int_t = type { i32 }
%struct.hb_atomic_ptr_t = type { ptr }
%union.anon = type { %"struct.hb_subset_input_t::sets_t" }
%"struct.hb_subset_input_t::sets_t" = type { %"struct.hb::shared_ptr", %"struct.hb::shared_ptr", %"struct.hb::shared_ptr", %"struct.hb::shared_ptr", %"struct.hb::shared_ptr", %"struct.hb::shared_ptr", %"struct.hb::shared_ptr", %"struct.hb::shared_ptr" }
%struct.hb_hashmap_t = type { %struct.hb_object_header_t, i8, i16, i32, i32, i32, i32, ptr }
%struct.hb_map_t = type { %struct.hb_hashmap_t.0 }
%struct.hb_hashmap_t.0 = type { %struct.hb_object_header_t, i8, i16, i32, i32, i32, i32, ptr }
%struct.Triple = type { double, double, double }
%struct.hb_ot_var_axis_info_t = type { i32, i32, i32, i32, float, float, float, i32 }

@_ZL8hb_clamp = internal constant %struct.anon.6 zeroinitializer, align 1
@_ZL6hb_max = internal constant %struct.anon.7 zeroinitializer, align 1
@_ZL6hb_min = internal constant %struct.anon.8 zeroinitializer, align 1
@_ZL7hb_hash = internal constant %struct.anon.40 zeroinitializer, align 1

; Function Attrs: mustprogress nounwind uwtable
define internal noundef i32 @"_ZNK3$_34implIjTnPN12hb_enable_ifIXaasr3std11is_integralIT_EE5valuelestS2_Lm4EEvE4typeELPv0EEEN10_hb_head_tIjJDTmlcvjfp_Lj2654435761EEEE4typeERKS2_11hb_priorityILj1EE"(ptr noundef nonnull align 1 dereferenceable(1) %0, ptr noundef nonnull align 4 dereferenceable(4) %1) #0 align 2 {
  %3 = alloca ptr, align 8
  %4 = alloca ptr, align 8
  store ptr %0, ptr %3, align 8, !tbaa !56
  store ptr %1, ptr %4, align 8, !tbaa !48
  %5 = load ptr, ptr %4, align 8, !tbaa !48
  %6 = load i32, ptr %5, align 4, !tbaa !43
  %7 = mul i32 %6, -1640531535
  ret i32 %7
}

; Function Attrs: mustprogress nounwind uwtable
define internal noundef i32 @"_ZNK3$_3clIjEEN10_hb_head_tIjJDTcl4implfp_cv11hb_priorityILj16EE_EEEEE4typeERKT_"(ptr noundef nonnull align 1 dereferenceable(1) %0, ptr noundef nonnull align 4 dereferenceable(4) %1) #0 align 2 {
  %3 = alloca ptr, align 8
  %4 = alloca ptr, align 8
  store ptr %0, ptr %3, align 8, !tbaa !56
  store ptr %1, ptr %4, align 8, !tbaa !48
  %5 = load ptr, ptr %3, align 8
  %6 = load ptr, ptr %4, align 8, !tbaa !48
  %7 = call noundef i32 @"_ZNK3$_34implIjTnPN12hb_enable_ifIXaasr3std11is_integralIT_EE5valuelestS2_Lm4EEvE4typeELPv0EEEN10_hb_head_tIjJDTmlcvjfp_Lj2654435761EEEE4typeERKS2_11hb_priorityILj1EE"(ptr noundef nonnull align 1 dereferenceable(1) %5, ptr noundef nonnull align 4 dereferenceable(4) %6)
  ret i32 %7
}

; Function Attrs: mustprogress nounwind uwtable
define internal noundef nonnull align 4 dereferenceable(4) ptr @"_ZNK3$_2clIRfS1_EEDTqulefp_fp0_fp_fp0_EOT_OT0_"(ptr noundef nonnull align 1 dereferenceable(1) %0, ptr noundef nonnull align 4 dereferenceable(4) %1, ptr noundef nonnull align 4 dereferenceable(4) %2) #0 align 2 {
  %4 = alloca ptr, align 8
  %5 = alloca ptr, align 8
  %6 = alloca ptr, align 8
  store ptr %0, ptr %4, align 8, !tbaa !56
  store ptr %1, ptr %5, align 8, !tbaa !91
  store ptr %2, ptr %6, align 8, !tbaa !91
  %7 = load ptr, ptr %5, align 8, !tbaa !91
  %8 = load float, ptr %7, align 4, !tbaa !86
  %9 = load ptr, ptr %6, align 8, !tbaa !91
  %10 = load float, ptr %9, align 4, !tbaa !86
  %11 = fcmp ole float %8, %10
  br i1 %11, label %12, label %14

12:                                               ; preds = %3
  %13 = load ptr, ptr %5, align 8, !tbaa !91
  br label %16

14:                                               ; preds = %3
  %15 = load ptr, ptr %6, align 8, !tbaa !91
  br label %16

16:                                               ; preds = %14, %12
  %17 = phi ptr [ %13, %12 ], [ %15, %14 ]
  ret ptr %17
}

; Function Attrs: mustprogress nounwind uwtable
define internal noundef nonnull align 4 dereferenceable(4) ptr @"_ZNK3$_0clIRfS1_EEDTqugefp_fp0_fp_fp0_EOT_OT0_"(ptr noundef nonnull align 1 dereferenceable(1) %0, ptr noundef nonnull align 4 dereferenceable(4) %1, ptr noundef nonnull align 4 dereferenceable(4) %2) #0 align 2 {
  %4 = alloca ptr, align 8
  %5 = alloca ptr, align 8
  %6 = alloca ptr, align 8
  store ptr %0, ptr %4, align 8, !tbaa !56
  store ptr %1, ptr %5, align 8, !tbaa !91
  store ptr %2, ptr %6, align 8, !tbaa !91
  %7 = load ptr, ptr %5, align 8, !tbaa !91
  %8 = load float, ptr %7, align 4, !tbaa !86
  %9 = load ptr, ptr %6, align 8, !tbaa !91
  %10 = load float, ptr %9, align 4, !tbaa !86
  %11 = fcmp oge float %8, %10
  br i1 %11, label %12, label %14

12:                                               ; preds = %3
  %13 = load ptr, ptr %5, align 8, !tbaa !91
  br label %16

14:                                               ; preds = %3
  %15 = load ptr, ptr %6, align 8, !tbaa !91
  br label %16

16:                                               ; preds = %14, %12
  %17 = phi ptr [ %13, %12 ], [ %15, %14 ]
  ret ptr %17
}

; Function Attrs: mustprogress nounwind uwtable
define linkonce_odr dso_local noundef zeroext i1 @_ZN12hb_hashmap_tIj6TripleLb0EE3setIS0_EEbRKjOT_b(ptr noundef nonnull align 8 dereferenceable(48) %0, ptr noundef nonnull align 4 dereferenceable(4) %1, ptr noundef nonnull align 8 dereferenceable(24) %2, i1 noundef zeroext %3) #0 comdat align 2 {
  %5 = alloca ptr, align 8
  %6 = alloca ptr, align 8
  %7 = alloca ptr, align 8
  %8 = alloca i8, align 1
  store ptr %0, ptr %5, align 8, !tbaa !32
  store ptr %1, ptr %6, align 8, !tbaa !48
  store ptr %2, ptr %7, align 8, !tbaa !77
  %9 = zext i1 %3 to i8
  store i8 %9, ptr %8, align 1, !tbaa !79
  %10 = load ptr, ptr %5, align 8
  %11 = load ptr, ptr %6, align 8, !tbaa !48
  %12 = load ptr, ptr %6, align 8, !tbaa !48
  %13 = call noundef i32 @"_ZNK3$_3clIjEEN10_hb_head_tIjJDTcl4implfp_cv11hb_priorityILj16EE_EEEEE4typeERKT_"(ptr noundef nonnull align 1 dereferenceable(1) @_ZL7hb_hash, ptr noundef nonnull align 4 dereferenceable(4) %12)
  %14 = load ptr, ptr %7, align 8, !tbaa !77
  %15 = load i8, ptr %8, align 1, !tbaa !79, !range !80, !noundef !81
  %16 = trunc i8 %15 to i1
  %17 = call noundef zeroext i1 @_ZN12hb_hashmap_tIj6TripleLb0EE13set_with_hashIRKjS0_EEbOT_jOT0_b(ptr noundef nonnull align 8 dereferenceable(48) %10, ptr noundef nonnull align 4 dereferenceable(4) %11, i32 noundef %13, ptr noundef nonnull align 8 dereferenceable(24) %14, i1 noundef zeroext %16)
  ret i1 %17
}

; Function Attrs: mustprogress nounwind uwtable
define linkonce_odr dso_local void @_ZN6TripleC2Eddd(ptr noundef nonnull align 8 dereferenceable(24) %0, double noundef %1, double noundef %2, double noundef %3) unnamed_addr #0 comdat align 2 {
  %5 = alloca ptr, align 8
  %6 = alloca double, align 8
  %7 = alloca double, align 8
  %8 = alloca double, align 8
  store ptr %0, ptr %5, align 8, !tbaa !77
  store double %1, ptr %6, align 8, !tbaa !74
  store double %2, ptr %7, align 8, !tbaa !74
  store double %3, ptr %8, align 8, !tbaa !74
  %9 = load ptr, ptr %5, align 8
  %10 = getelementptr inbounds nuw %struct.Triple, ptr %9, i32 0, i32 0
  %11 = load double, ptr %6, align 8, !tbaa !74
  store double %11, ptr %10, align 8, !tbaa !82
  %12 = getelementptr inbounds nuw %struct.Triple, ptr %9, i32 0, i32 1
  %13 = load double, ptr %7, align 8, !tbaa !74
  store double %13, ptr %12, align 8, !tbaa !84
  %14 = getelementptr inbounds nuw %struct.Triple, ptr %9, i32 0, i32 2
  %15 = load double, ptr %8, align 8, !tbaa !74
  store double %15, ptr %14, align 8, !tbaa !85
  ret void
}

; Function Attrs: mustprogress nounwind uwtable
define internal noundef nonnull align 4 dereferenceable(4) ptr @"_ZNK3$_4clIRfS1_S1_EEDTclL_ZL6hb_minEclL_ZL6hb_maxEclsr3stdE7forwardIT_Efp_Eclsr3stdE7forwardIT0_Efp0_EEclsr3stdE7forwardIT1_Efp1_EEEOS2_OS3_OS4_"(ptr noundef nonnull align 1 dereferenceable(1) %0, ptr noundef nonnull align 4 dereferenceable(4) %1, ptr noundef nonnull align 4 dereferenceable(4) %2, ptr noundef nonnull align 4 dereferenceable(4) %3) #0 align 2 {
  %5 = alloca ptr, align 8
  %6 = alloca ptr, align 8
  %7 = alloca ptr, align 8
  %8 = alloca ptr, align 8
  store ptr %0, ptr %5, align 8, !tbaa !56
  store ptr %1, ptr %6, align 8, !tbaa !91
  store ptr %2, ptr %7, align 8, !tbaa !91
  store ptr %3, ptr %8, align 8, !tbaa !91
  %9 = load ptr, ptr %6, align 8, !tbaa !91
  %10 = load ptr, ptr %7, align 8, !tbaa !91
  %11 = call noundef nonnull align 4 dereferenceable(4) ptr @"_ZNK3$_0clIRfS1_EEDTqugefp_fp0_fp_fp0_EOT_OT0_"(ptr noundef nonnull align 1 dereferenceable(1) @_ZL6hb_max, ptr noundef nonnull align 4 dereferenceable(4) %9, ptr noundef nonnull align 4 dereferenceable(4) %10)
  %12 = load ptr, ptr %8, align 8, !tbaa !91
  %13 = call noundef nonnull align 4 dereferenceable(4) ptr @"_ZNK3$_2clIRfS1_EEDTqulefp_fp0_fp_fp0_EOT_OT0_"(ptr noundef nonnull align 1 dereferenceable(1) @_ZL6hb_min, ptr noundef nonnull align 4 dereferenceable(4) %11, ptr noundef nonnull align 4 dereferenceable(4) %12)
  ret ptr %13
}

; Function Attrs: mustprogress nounwind uwtable
define linkonce_odr dso_local noundef zeroext i1 @_ZSt5isnanf(float noundef %0) #0 comdat {
  %2 = alloca float, align 4
  store float %0, ptr %2, align 4, !tbaa !86
  %3 = load float, ptr %2, align 4, !tbaa !86
  %4 = call i1 @llvm.is.fpclass.f32(float %3, i32 3)
  ret i1 %4
}

; Function Attrs: mustprogress nounwind uwtable
define dso_local i32 @hb_subset_input_set_axis_range(ptr noundef %0, ptr noundef %1, i32 noundef %2, float noundef %3, float noundef %4, float noundef %5) #0 {
  %7 = alloca i32, align 4
  %8 = alloca ptr, align 8
  %9 = alloca ptr, align 8
  %10 = alloca i32, align 4
  %11 = alloca float, align 4
  %12 = alloca float, align 4
  %13 = alloca float, align 4
  %14 = alloca %struct.hb_ot_var_axis_info_t, align 4
  %15 = alloca i32, align 4
  %16 = alloca float, align 4
  %17 = alloca float, align 4
  %18 = alloca float, align 4
  %19 = alloca float, align 4
  %20 = alloca float, align 4
  %21 = alloca float, align 4
  %22 = alloca %struct.Triple, align 8
  store ptr %0, ptr %8, align 8, !tbaa !4
  store ptr %1, ptr %9, align 8, !tbaa !65
  store i32 %2, ptr %10, align 4, !tbaa !43
  store float %3, ptr %11, align 4, !tbaa !86
  store float %4, ptr %12, align 4, !tbaa !86
  store float %5, ptr %13, align 4, !tbaa !86
  call void @llvm.lifetime.start.p0(i64 32, ptr %14) #13
  %23 = load ptr, ptr %9, align 8, !tbaa !65
  %24 = load i32, ptr %10, align 4, !tbaa !43
  %25 = call i32 @hb_ot_var_find_axis_info(ptr noundef %23, i32 noundef %24, ptr noundef %14)
  %26 = icmp ne i32 %25, 0
  br i1 %26, label %28, label %27

27:                                               ; preds = %6
  store i32 0, ptr %7, align 4
  store i32 1, ptr %15, align 4
  br label %82

28:                                               ; preds = %6
  call void @llvm.lifetime.start.p0(i64 4, ptr %16) #13
  %29 = load float, ptr %11, align 4, !tbaa !86
  %30 = call noundef zeroext i1 @_ZSt5isnanf(float noundef %29)
  br i1 %30, label %33, label %31

31:                                               ; preds = %28
  %32 = load float, ptr %11, align 4, !tbaa !86
  br label %36

33:                                               ; preds = %28
  %34 = getelementptr inbounds nuw %struct.hb_ot_var_axis_info_t, ptr %14, i32 0, i32 4
  %35 = load float, ptr %34, align 4, !tbaa !87
  br label %36

36:                                               ; preds = %33, %31
  %37 = phi float [ %32, %31 ], [ %35, %33 ]
  store float %37, ptr %16, align 4, !tbaa !86
  call void @llvm.lifetime.start.p0(i64 4, ptr %17) #13
  %38 = load float, ptr %12, align 4, !tbaa !86
  %39 = call noundef zeroext i1 @_ZSt5isnanf(float noundef %38)
  br i1 %39, label %42, label %40

40:                                               ; preds = %36
  %41 = load float, ptr %12, align 4, !tbaa !86
  br label %45

42:                                               ; preds = %36
  %43 = getelementptr inbounds nuw %struct.hb_ot_var_axis_info_t, ptr %14, i32 0, i32 6
  %44 = load float, ptr %43, align 4, !tbaa !88
  br label %45

45:                                               ; preds = %42, %40
  %46 = phi float [ %41, %40 ], [ %44, %42 ]
  store float %46, ptr %17, align 4, !tbaa !86
  call void @llvm.lifetime.start.p0(i64 4, ptr %18) #13
  %47 = load float, ptr %13, align 4, !tbaa !86
  %48 = call noundef zeroext i1 @_ZSt5isnanf(float noundef %47)
  br i1 %48, label %51, label %49

49:                                               ; preds = %45
  %50 = load float, ptr %13, align 4, !tbaa !86
  br label %54

51:                                               ; preds = %45
  %52 = getelementptr inbounds nuw %struct.hb_ot_var_axis_info_t, ptr %14, i32 0, i32 5
  %53 = load float, ptr %52, align 4, !tbaa !73
  br label %54

54:                                               ; preds = %51, %49
  %55 = phi float [ %50, %49 ], [ %53, %51 ]
  store float %55, ptr %18, align 4, !tbaa !86
  %56 = load float, ptr %16, align 4, !tbaa !86
  %57 = load float, ptr %17, align 4, !tbaa !86
  %58 = fcmp ogt float %56, %57
  br i1 %58, label %59, label %60

59:                                               ; preds = %54
  store i32 0, ptr %7, align 4
  store i32 1, ptr %15, align 4
  br label %81

60:                                               ; preds = %54
  call void @llvm.lifetime.start.p0(i64 4, ptr %19) #13
  %61 = getelementptr inbounds nuw %struct.hb_ot_var_axis_info_t, ptr %14, i32 0, i32 4
  %62 = getelementptr inbounds nuw %struct.hb_ot_var_axis_info_t, ptr %14, i32 0, i32 6
  %63 = call noundef nonnull align 4 dereferenceable(4) ptr @"_ZNK3$_4clIRfS1_S1_EEDTclL_ZL6hb_minEclL_ZL6hb_maxEclsr3stdE7forwardIT_Efp_Eclsr3stdE7forwardIT0_Efp0_EEclsr3stdE7forwardIT1_Efp1_EEEOS2_OS3_OS4_"(ptr noundef nonnull align 1 dereferenceable(1) @_ZL8hb_clamp, ptr noundef nonnull align 4 dereferenceable(4) %16, ptr noundef nonnull align 4 dereferenceable(4) %61, ptr noundef nonnull align 4 dereferenceable(4) %62)
  %64 = load float, ptr %63, align 4, !tbaa !86
  store float %64, ptr %19, align 4, !tbaa !86
  call void @llvm.lifetime.start.p0(i64 4, ptr %20) #13
  %65 = getelementptr inbounds nuw %struct.hb_ot_var_axis_info_t, ptr %14, i32 0, i32 4
  %66 = getelementptr inbounds nuw %struct.hb_ot_var_axis_info_t, ptr %14, i32 0, i32 6
  %67 = call noundef nonnull align 4 dereferenceable(4) ptr @"_ZNK3$_4clIRfS1_S1_EEDTclL_ZL6hb_minEclL_ZL6hb_maxEclsr3stdE7forwardIT_Efp_Eclsr3stdE7forwardIT0_Efp0_EEclsr3stdE7forwardIT1_Efp1_EEEOS2_OS3_OS4_"(ptr noundef nonnull align 1 dereferenceable(1) @_ZL8hb_clamp, ptr noundef nonnull align 4 dereferenceable(4) %17, ptr noundef nonnull align 4 dereferenceable(4) %65, ptr noundef nonnull align 4 dereferenceable(4) %66)
  %68 = load float, ptr %67, align 4, !tbaa !86
  store float %68, ptr %20, align 4, !tbaa !86
  call void @llvm.lifetime.start.p0(i64 4, ptr %21) #13
  %69 = call noundef nonnull align 4 dereferenceable(4) ptr @"_ZNK3$_4clIRfS1_S1_EEDTclL_ZL6hb_minEclL_ZL6hb_maxEclsr3stdE7forwardIT_Efp_Eclsr3stdE7forwardIT0_Efp0_EEclsr3stdE7forwardIT1_Efp1_EEEOS2_OS3_OS4_"(ptr noundef nonnull align 1 dereferenceable(1) @_ZL8hb_clamp, ptr noundef nonnull align 4 dereferenceable(4) %18, ptr noundef nonnull align 4 dereferenceable(4) %19, ptr noundef nonnull align 4 dereferenceable(4) %20)
  %70 = load float, ptr %69, align 4, !tbaa !86
  store float %70, ptr %21, align 4, !tbaa !86
  %71 = load ptr, ptr %8, align 8, !tbaa !4
  %72 = getelementptr inbounds nuw %struct.hb_subset_input_t, ptr %71, i32 0, i32 5
  call void @llvm.lifetime.start.p0(i64 24, ptr %22) #13
  %73 = load float, ptr %19, align 4, !tbaa !86
  %74 = fpext float %73 to double
  %75 = load float, ptr %21, align 4, !tbaa !86
  %76 = fpext float %75 to double
  %77 = load float, ptr %20, align 4, !tbaa !86
  %78 = fpext float %77 to double
  call void @_ZN6TripleC2Eddd(ptr noundef nonnull align 8 dereferenceable(24) %22, double noundef %74, double noundef %76, double noundef %78)
  %79 = call noundef zeroext i1 @_ZN12hb_hashmap_tIj6TripleLb0EE3setIS0_EEbRKjOT_b(ptr noundef nonnull align 8 dereferenceable(48) %72, ptr noundef nonnull align 4 dereferenceable(4) %10, ptr noundef nonnull align 8 dereferenceable(24) %22, i1 noundef zeroext true)
  %80 = zext i1 %79 to i32
  store i32 %80, ptr %7, align 4
  call void @llvm.lifetime.end.p0(i64 24, ptr %22) #13
  store i32 1, ptr %15, align 4
  call void @llvm.lifetime.end.p0(i64 4, ptr %21) #13
  call void @llvm.lifetime.end.p0(i64 4, ptr %20) #13
  call void @llvm.lifetime.end.p0(i64 4, ptr %19) #13
  br label %81

81:                                               ; preds = %60, %59
  call void @llvm.lifetime.end.p0(i64 4, ptr %18) #13
  call void @llvm.lifetime.end.p0(i64 4, ptr %17) #13
  call void @llvm.lifetime.end.p0(i64 4, ptr %16) #13
  br label %82

82:                                               ; preds = %81, %27
  call void @llvm.lifetime.end.p0(i64 32, ptr %14) #13
  %83 = load i32, ptr %7, align 4
  ret i32 %83
}