; Function Attrs: mustprogress nounwind uwtable
define dso_local range(i32 0, 2) i32 @hb_subset_input_set_axis_range(ptr noundef %0, ptr noundef %1, i32 noundef %2, float noundef %3, float noundef %4, float noundef %5) local_unnamed_addr #0 {
  %7 = alloca i32, align 4
  %8 = alloca %struct.hb_ot_var_axis_info_t, align 4
  %9 = alloca %struct.Triple, align 8
  store i32 %2, ptr %7, align 4, !tbaa !52
  call void @llvm.lifetime.start.p0(i64 32, ptr nonnull %8) #21
  %10 = call i32 @hb_ot_var_find_axis_info(ptr noundef %1, i32 noundef %2, ptr noundef nonnull %8) #21
  %.not = icmp eq i32 %10, 0
  br i1 %.not, label %46, label %11

11:                                               ; preds = %6
  %12 = fcmp uno float %3, 0.000000e+00
  %13 = getelementptr inbounds nuw i8, ptr %8, i64 16
  %14 = load float, ptr %13, align 4
  %15 = select i1 %12, float %14, float %3
  %16 = fcmp uno float %4, 0.000000e+00
  %17 = getelementptr inbounds nuw i8, ptr %8, i64 24
  %18 = load float, ptr %17, align 4
  %19 = select i1 %16, float %18, float %4
  %20 = fcmp ogt float %15, %19
  br i1 %20, label %46, label %21

21:                                               ; preds = %11
  %22 = fcmp uno float %5, 0.000000e+00
  %23 = getelementptr inbounds nuw i8, ptr %8, i64 20
  %24 = load float, ptr %23, align 4
  %25 = select i1 %22, float %24, float %5
  %26 = fcmp oge float %15, %14
  %27 = select i1 %26, float %15, float %14
  %28 = fcmp ole float %27, %18
  %29 = select i1 %28, float %27, float %18
  %30 = fcmp oge float %19, %14
  %31 = select i1 %30, float %19, float %14
  %32 = fcmp ole float %31, %18
  %33 = select i1 %32, float %31, float %18
  %34 = fcmp oge float %25, %29
  %35 = select i1 %34, float %25, float %29
  %36 = fcmp ole float %35, %33
  %.sroa.speculated = select i1 %36, float %35, float %33
  %37 = getelementptr inbounds nuw i8, ptr %0, i64 88
  call void @llvm.lifetime.start.p0(i64 24, ptr nonnull %9) #21
  %38 = fpext float %29 to double
  %39 = fpext float %.sroa.speculated to double
  %40 = fpext float %33 to double
  store double %38, ptr %9, align 8, !tbaa !76
  %41 = getelementptr inbounds nuw i8, ptr %9, i64 8
  store double %39, ptr %41, align 8, !tbaa !79
  %42 = getelementptr inbounds nuw i8, ptr %9, i64 16
  store double %40, ptr %42, align 8, !tbaa !80
  %43 = mul i32 %2, -1640531535
  %44 = call noundef zeroext i1 @_ZN12hb_hashmap_tIj6TripleLb0EE13set_with_hashIRKjS0_EEbOT_jOT0_b(ptr noundef nonnull align 8 dereferenceable(48) %37, ptr noundef nonnull align 4 dereferenceable(4) %7, i32 noundef %43, ptr noundef nonnull align 8 dereferenceable(24) %9, i1 noundef zeroext true)
  %45 = zext i1 %44 to i32
  call void @llvm.lifetime.end.p0(i64 24, ptr nonnull %9) #21
  br label %46

46:                                               ; preds = %21, %11, %6
  %.0 = phi i32 [ 0, %6 ], [ %45, %21 ], [ 0, %11 ]
  call void @llvm.lifetime.end.p0(i64 32, ptr nonnull %8) #21
  ret i32 %.0
}